target datalayout = "e-m:e-p270:32:32-p271:32:32-p272:64:64-i64:64-i128:128-f80:128-n8:16:32:64-S128"
target triple = "x86_64-pc-linux-gnu"

%"struct.duckdb_brotli::BrotliBitReader" = type { i64, i64, ptr, ptr, ptr }
%"struct.duckdb_brotli::HuffmanCode" = type { i8, i16 }

@_ZN13duckdb_brotli14kBrotliBitMaskE = external constant [33 x i64], align 16

; Function Attrs: alwaysinline mustprogress nounwind uwtable
define internal noundef i64 @_ZN13duckdb_brotliL7BitMaskEm(i64 noundef %0) #7 {
  %2 = alloca i64, align 8
  %3 = alloca i64, align 8
  store i64 %0, ptr %3, align 8, !tbaa !31
  %4 = load i64, ptr %3, align 8, !tbaa !31
  %5 = call i1 @llvm.is.constant.i64(i64 %4)
  br i1 %5, label %6, label %10

6:                                                ; preds = %1
  %7 = load i64, ptr %3, align 8, !tbaa !31
  %8 = shl i64 -1, %7
  %9 = xor i64 %8, -1
  store i64 %9, ptr %2, align 8
  br label %14

10:                                               ; preds = %1
  %11 = load i64, ptr %3, align 8, !tbaa !31
  %12 = getelementptr inbounds nuw [33 x i64], ptr @_ZN13duckdb_brotli14kBrotliBitMaskE, i64 0, i64 %11
  %13 = load i64, ptr %12, align 8, !tbaa !31
  store i64 %13, ptr %2, align 8
  br label %14

14:                                               ; preds = %10, %6
  %15 = load i64, ptr %2, align 8
  ret i64 %15
}

; Function Attrs: alwaysinline mustprogress nounwind uwtable
define internal void @_ZN13duckdb_brotliL14BrotliDropBitsEPNS_15BrotliBitReaderEm(ptr noundef %0, i64 noundef %1) #7 {
  %3 = alloca ptr, align 8
  %4 = alloca i64, align 8
  store ptr %0, ptr %3, align 8, !tbaa !26
  store i64 %1, ptr %4, align 8, !tbaa !31
  %5 = load i64, ptr %4, align 8, !tbaa !31
  %6 = load ptr, ptr %3, align 8, !tbaa !26
  %7 = getelementptr inbounds nuw %"struct.duckdb_brotli::BrotliBitReader", ptr %6, i32 0, i32 1
  %8 = load i64, ptr %7, align 8, !tbaa !105
  %9 = sub i64 %8, %5
  store i64 %9, ptr %7, align 8, !tbaa !105
  %10 = load i64, ptr %4, align 8, !tbaa !31
  %11 = load ptr, ptr %3, align 8, !tbaa !26
  %12 = getelementptr inbounds nuw %"struct.duckdb_brotli::BrotliBitReader", ptr %11, i32 0, i32 0
  %13 = load i64, ptr %12, align 8, !tbaa !165
  %14 = lshr i64 %13, %10
  store i64 %14, ptr %12, align 8, !tbaa !165
  ret void
}

; Function Attrs: alwaysinline mustprogress nounwind uwtable
define internal noundef i64 @_ZN13duckdb_brotliL21BrotliGetBitsUnmaskedEPNS_15BrotliBitReaderE(ptr noundef %0) #7 {
  %2 = alloca ptr, align 8
  store ptr %0, ptr %2, align 8, !tbaa !26
  %3 = load ptr, ptr %2, align 8, !tbaa !26
  %4 = getelementptr inbounds nuw %"struct.duckdb_brotli::BrotliBitReader", ptr %3, i32 0, i32 0
  %5 = load i64, ptr %4, align 8, !tbaa !165
  ret i64 %5
}

; Function Attrs: alwaysinline mustprogress nounwind uwtable
define internal noundef i64 @_ZN13duckdb_brotliL22BrotliGetAvailableBitsEPKNS_15BrotliBitReaderE(ptr noundef %0) #7 {
  %2 = alloca ptr, align 8
  store ptr %0, ptr %2, align 8, !tbaa !26
  %3 = load ptr, ptr %2, align 8, !tbaa !26
  %4 = getelementptr inbounds nuw %"struct.duckdb_brotli::BrotliBitReader", ptr %3, i32 0, i32 1
  %5 = load i64, ptr %4, align 8, !tbaa !105
  ret i64 %5
}

; Function Attrs: mustprogress noinline uwtable
define internal noundef i32 @_ZN13duckdb_brotliL16SafeDecodeSymbolEPKNS_11HuffmanCodeEPNS_15BrotliBitReaderEPm(ptr noundef %0, ptr noundef %1, ptr noundef %2) #8 {
  %4 = alloca i32, align 4
  %5 = alloca ptr, align 8
  %6 = alloca ptr, align 8
  %7 = alloca ptr, align 8
  %8 = alloca i64, align 8
  %9 = alloca i64, align 8
  %10 = alloca i32, align 4
  store ptr %0, ptr %5, align 8, !tbaa !26
  store ptr %1, ptr %6, align 8, !tbaa !26
  store ptr %2, ptr %7, align 8, !tbaa !50
  call void @llvm.lifetime.start.p0(i64 8, ptr %8) #14
  call void @llvm.lifetime.start.p0(i64 8, ptr %9) #14
  %11 = load ptr, ptr %6, align 8, !tbaa !26
  %12 = call noundef i64 @_ZN13duckdb_brotliL22BrotliGetAvailableBitsEPKNS_15BrotliBitReaderE(ptr noundef %11)
  store i64 %12, ptr %9, align 8, !tbaa !31
  %13 = load i64, ptr %9, align 8, !tbaa !31
  %14 = icmp eq i64 %13, 0
  br i1 %14, label %15, label %28

15:                                               ; preds = %3
  %16 = load ptr, ptr %5, align 8, !tbaa !26
  %17 = getelementptr inbounds nuw %"struct.duckdb_brotli::HuffmanCode", ptr %16, i32 0, i32 0
  %18 = load i8, ptr %17, align 2, !tbaa !173
  %19 = zext i8 %18 to i32
  %20 = icmp eq i32 %19, 0
  br i1 %20, label %21, label %27

21:                                               ; preds = %15
  %22 = load ptr, ptr %5, align 8, !tbaa !26
  %23 = getelementptr inbounds nuw %"struct.duckdb_brotli::HuffmanCode", ptr %22, i32 0, i32 1
  %24 = load i16, ptr %23, align 2, !tbaa !175
  %25 = zext i16 %24 to i64
  %26 = load ptr, ptr %7, align 8, !tbaa !50
  store i64 %25, ptr %26, align 8, !tbaa !31
  store i32 1, ptr %4, align 4
  store i32 1, ptr %10, align 4
  br label %102

27:                                               ; preds = %15
  store i32 0, ptr %4, align 4
  store i32 1, ptr %10, align 4
  br label %102

28:                                               ; preds = %3
  %29 = load ptr, ptr %6, align 8, !tbaa !26
  %30 = call noundef i64 @_ZN13duckdb_brotliL21BrotliGetBitsUnmaskedEPNS_15BrotliBitReaderE(ptr noundef %29)
  store i64 %30, ptr %8, align 8, !tbaa !31
  %31 = load i64, ptr %8, align 8, !tbaa !31
  %32 = and i64 %31, 255
  %33 = load ptr, ptr %5, align 8, !tbaa !26
  %34 = getelementptr inbounds nuw %"struct.duckdb_brotli::HuffmanCode", ptr %33, i64 %32
  store ptr %34, ptr %5, align 8, !tbaa !26
  %35 = load ptr, ptr %5, align 8, !tbaa !26
  %36 = getelementptr inbounds nuw %"struct.duckdb_brotli::HuffmanCode", ptr %35, i32 0, i32 0
  %37 = load i8, ptr %36, align 2, !tbaa !173
  %38 = zext i8 %37 to i32
  %39 = icmp ule i32 %38, 8
  br i1 %39, label %40, label %59

40:                                               ; preds = %28
  %41 = load ptr, ptr %5, align 8, !tbaa !26
  %42 = getelementptr inbounds nuw %"struct.duckdb_brotli::HuffmanCode", ptr %41, i32 0, i32 0
  %43 = load i8, ptr %42, align 2, !tbaa !173
  %44 = zext i8 %43 to i64
  %45 = load i64, ptr %9, align 8, !tbaa !31
  %46 = icmp ule i64 %44, %45
  br i1 %46, label %47, label %58

47:                                               ; preds = %40
  %48 = load ptr, ptr %6, align 8, !tbaa !26
  %49 = load ptr, ptr %5, align 8, !tbaa !26
  %50 = getelementptr inbounds nuw %"struct.duckdb_brotli::HuffmanCode", ptr %49, i32 0, i32 0
  %51 = load i8, ptr %50, align 2, !tbaa !173
  %52 = zext i8 %51 to i64
  call void @_ZN13duckdb_brotliL14BrotliDropBitsEPNS_15BrotliBitReaderEm(ptr noundef %48, i64 noundef %52)
  %53 = load ptr, ptr %5, align 8, !tbaa !26
  %54 = getelementptr inbounds nuw %"struct.duckdb_brotli::HuffmanCode", ptr %53, i32 0, i32 1
  %55 = load i16, ptr %54, align 2, !tbaa !175
  %56 = zext i16 %55 to i64
  %57 = load ptr, ptr %7, align 8, !tbaa !50
  store i64 %56, ptr %57, align 8, !tbaa !31
  store i32 1, ptr %4, align 4
  store i32 1, ptr %10, align 4
  br label %102

58:                                               ; preds = %40
  store i32 0, ptr %4, align 4
  store i32 1, ptr %10, align 4
  br label %102

59:                                               ; preds = %28
  %60 = load i64, ptr %9, align 8, !tbaa !31
  %61 = icmp ule i64 %60, 8
  br i1 %61, label %62, label %63

62:                                               ; preds = %59
  store i32 0, ptr %4, align 4
  store i32 1, ptr %10, align 4
  br label %102

63:                                               ; preds = %59
  %64 = load i64, ptr %8, align 8, !tbaa !31
  %65 = load ptr, ptr %5, align 8, !tbaa !26
  %66 = getelementptr inbounds nuw %"struct.duckdb_brotli::HuffmanCode", ptr %65, i32 0, i32 0
  %67 = load i8, ptr %66, align 2, !tbaa !173
  %68 = zext i8 %67 to i64
  %69 = call noundef i64 @_ZN13duckdb_brotliL7BitMaskEm(i64 noundef %68)
  %70 = and i64 %64, %69
  %71 = lshr i64 %70, 8
  store i64 %71, ptr %8, align 8, !tbaa !31
  %72 = load i64, ptr %9, align 8, !tbaa !31
  %73 = sub i64 %72, 8
  store i64 %73, ptr %9, align 8, !tbaa !31
  %74 = load ptr, ptr %5, align 8, !tbaa !26
  %75 = getelementptr inbounds nuw %"struct.duckdb_brotli::HuffmanCode", ptr %74, i32 0, i32 1
  %76 = load i16, ptr %75, align 2, !tbaa !175
  %77 = zext i16 %76 to i64
  %78 = load i64, ptr %8, align 8, !tbaa !31
  %79 = add i64 %77, %78
  %80 = load ptr, ptr %5, align 8, !tbaa !26
  %81 = getelementptr inbounds nuw %"struct.duckdb_brotli::HuffmanCode", ptr %80, i64 %79
  store ptr %81, ptr %5, align 8, !tbaa !26
  %82 = load i64, ptr %9, align 8, !tbaa !31
  %83 = load ptr, ptr %5, align 8, !tbaa !26
  %84 = getelementptr inbounds nuw %"struct.duckdb_brotli::HuffmanCode", ptr %83, i32 0, i32 0
  %85 = load i8, ptr %84, align 2, !tbaa !173
  %86 = zext i8 %85 to i64
  %87 = icmp ult i64 %82, %86
  br i1 %87, label %88, label %89

88:                                               ; preds = %63
  store i32 0, ptr %4, align 4
  store i32 1, ptr %10, align 4
  br label %102

89:                                               ; preds = %63
  %90 = load ptr, ptr %6, align 8, !tbaa !26
  %91 = load ptr, ptr %5, align 8, !tbaa !26
  %92 = getelementptr inbounds nuw %"struct.duckdb_brotli::HuffmanCode", ptr %91, i32 0, i32 0
  %93 = load i8, ptr %92, align 2, !tbaa !173
  %94 = zext i8 %93 to i32
  %95 = add i32 8, %94
  %96 = zext i32 %95 to i64
  call void @_ZN13duckdb_brotliL14BrotliDropBitsEPNS_15BrotliBitReaderEm(ptr noundef %90, i64 noundef %96)
  %97 = load ptr, ptr %5, align 8, !tbaa !26
  %98 = getelementptr inbounds nuw %"struct.duckdb_brotli::HuffmanCode", ptr %97, i32 0, i32 1
  %99 = load i16, ptr %98, align 2, !tbaa !175
  %100 = zext i16 %99 to i64
  %101 = load ptr, ptr %7, align 8, !tbaa !50
  store i64 %100, ptr %101, align 8, !tbaa !31
  store i32 1, ptr %4, align 4
  store i32 1, ptr %10, align 4
  br label %102

102:                                              ; preds = %89, %88, %62, %58, %47, %27, %21
  call void @llvm.lifetime.end.p0(i64 8, ptr %9) #14
  call void @llvm.lifetime.end.p0(i64 8, ptr %8) #14
  %103 = load i32, ptr %4, align 4
  ret i32 %103
}